target datalayout = "e-m:e-p270:32:32-p271:32:32-p272:64:64-i64:64-i128:128-f80:128-n8:16:32:64-S128"
target triple = "x86_64-pc-linux-gnu"

%struct.archive_entry_linkresolver = type { ptr, ptr, i64, i64, i32 }
%struct.links_entry = type { ptr, ptr, ptr, ptr, i64, i32 }

; Function Attrs: nounwind uwtable
define internal void @grow_hash(ptr noundef %0) #0 {
  %2 = alloca ptr, align 8
  %3 = alloca ptr, align 8
  %4 = alloca ptr, align 8
  %5 = alloca i64, align 8
  %6 = alloca i64, align 8
  %7 = alloca i64, align 8
  %8 = alloca i32, align 4
  store ptr %0, ptr %2, align 8, !tbaa !4
  call void @llvm.lifetime.start.p0(i64 8, ptr %3) #5
  call void @llvm.lifetime.start.p0(i64 8, ptr %4) #5
  call void @llvm.lifetime.start.p0(i64 8, ptr %5) #5
  call void @llvm.lifetime.start.p0(i64 8, ptr %6) #5
  call void @llvm.lifetime.start.p0(i64 8, ptr %7) #5
  %9 = load ptr, ptr %2, align 8, !tbaa !4
  %10 = getelementptr inbounds nuw %struct.archive_entry_linkresolver, ptr %9, i32 0, i32 3
  %11 = load i64, ptr %10, align 8, !tbaa !9
  %12 = mul i64 %11, 2
  store i64 %12, ptr %5, align 8, !tbaa !26
  %13 = load i64, ptr %5, align 8, !tbaa !26
  %14 = load ptr, ptr %2, align 8, !tbaa !4
  %15 = getelementptr inbounds nuw %struct.archive_entry_linkresolver, ptr %14, i32 0, i32 3
  %16 = load i64, ptr %15, align 8, !tbaa !9
  %17 = icmp ult i64 %13, %16
  br i1 %17, label %18, label %19

18:                                               ; preds = %1
  store i32 1, ptr %8, align 4
  br label %101

19:                                               ; preds = %1
  %20 = load i64, ptr %5, align 8, !tbaa !26
  %21 = call noalias ptr @calloc(i64 noundef %20, i64 noundef 8) #6
  store ptr %21, ptr %4, align 8, !tbaa !40
  %22 = load ptr, ptr %4, align 8, !tbaa !40
  %23 = icmp eq ptr %22, null
  br i1 %23, label %24, label %25

24:                                               ; preds = %19
  store i32 1, ptr %8, align 4
  br label %101

25:                                               ; preds = %19
  store i64 0, ptr %6, align 8, !tbaa !26
  br label %26

26:                                               ; preds = %88, %25
  %27 = load i64, ptr %6, align 8, !tbaa !26
  %28 = load ptr, ptr %2, align 8, !tbaa !4
  %29 = getelementptr inbounds nuw %struct.archive_entry_linkresolver, ptr %28, i32 0, i32 3
  %30 = load i64, ptr %29, align 8, !tbaa !9
  %31 = icmp ult i64 %27, %30
  br i1 %31, label %32, label %91

32:                                               ; preds = %26
  br label %33

33:                                               ; preds = %74, %32
  %34 = load ptr, ptr %2, align 8, !tbaa !4
  %35 = getelementptr inbounds nuw %struct.archive_entry_linkresolver, ptr %34, i32 0, i32 0
  %36 = load ptr, ptr %35, align 8, !tbaa !15
  %37 = load i64, ptr %6, align 8, !tbaa !26
  %38 = getelementptr inbounds nuw ptr, ptr %36, i64 %37
  %39 = load ptr, ptr %38, align 8, !tbaa !18
  %40 = icmp ne ptr %39, null
  br i1 %40, label %41, label %87

41:                                               ; preds = %33
  %42 = load ptr, ptr %2, align 8, !tbaa !4
  %43 = getelementptr inbounds nuw %struct.archive_entry_linkresolver, ptr %42, i32 0, i32 0
  %44 = load ptr, ptr %43, align 8, !tbaa !15
  %45 = load i64, ptr %6, align 8, !tbaa !26
  %46 = getelementptr inbounds nuw ptr, ptr %44, i64 %45
  %47 = load ptr, ptr %46, align 8, !tbaa !18
  store ptr %47, ptr %3, align 8, !tbaa !18
  %48 = load ptr, ptr %3, align 8, !tbaa !18
  %49 = getelementptr inbounds nuw %struct.links_entry, ptr %48, i32 0, i32 0
  %50 = load ptr, ptr %49, align 8, !tbaa !27
  %51 = load ptr, ptr %2, align 8, !tbaa !4
  %52 = getelementptr inbounds nuw %struct.archive_entry_linkresolver, ptr %51, i32 0, i32 0
  %53 = load ptr, ptr %52, align 8, !tbaa !15
  %54 = load i64, ptr %6, align 8, !tbaa !26
  %55 = getelementptr inbounds nuw ptr, ptr %53, i64 %54
  store ptr %50, ptr %55, align 8, !tbaa !18
  %56 = load ptr, ptr %3, align 8, !tbaa !18
  %57 = getelementptr inbounds nuw %struct.links_entry, ptr %56, i32 0, i32 4
  %58 = load i64, ptr %57, align 8, !tbaa !36
  %59 = load i64, ptr %5, align 8, !tbaa !26
  %60 = sub i64 %59, 1
  %61 = and i64 %58, %60
  store i64 %61, ptr %7, align 8, !tbaa !26
  %62 = load ptr, ptr %4, align 8, !tbaa !40
  %63 = load i64, ptr %7, align 8, !tbaa !26
  %64 = getelementptr inbounds nuw ptr, ptr %62, i64 %63
  %65 = load ptr, ptr %64, align 8, !tbaa !18
  %66 = icmp ne ptr %65, null
  br i1 %66, label %67, label %74

67:                                               ; preds = %41
  %68 = load ptr, ptr %3, align 8, !tbaa !18
  %69 = load ptr, ptr %4, align 8, !tbaa !40
  %70 = load i64, ptr %7, align 8, !tbaa !26
  %71 = getelementptr inbounds nuw ptr, ptr %69, i64 %70
  %72 = load ptr, ptr %71, align 8, !tbaa !18
  %73 = getelementptr inbounds nuw %struct.links_entry, ptr %72, i32 0, i32 1
  store ptr %68, ptr %73, align 8, !tbaa !28
  br label %74

74:                                               ; preds = %67, %41
  %75 = load ptr, ptr %4, align 8, !tbaa !40
  %76 = load i64, ptr %7, align 8, !tbaa !26
  %77 = getelementptr inbounds nuw ptr, ptr %75, i64 %76
  %78 = load ptr, ptr %77, align 8, !tbaa !18
  %79 = load ptr, ptr %3, align 8, !tbaa !18
  %80 = getelementptr inbounds nuw %struct.links_entry, ptr %79, i32 0, i32 0
  store ptr %78, ptr %80, align 8, !tbaa !27
  %81 = load ptr, ptr %3, align 8, !tbaa !18
  %82 = getelementptr inbounds nuw %struct.links_entry, ptr %81, i32 0, i32 1
  store ptr null, ptr %82, align 8, !tbaa !28
  %83 = load ptr, ptr %3, align 8, !tbaa !18
  %84 = load ptr, ptr %4, align 8, !tbaa !40
  %85 = load i64, ptr %7, align 8, !tbaa !26
  %86 = getelementptr inbounds nuw ptr, ptr %84, i64 %85
  store ptr %83, ptr %86, align 8, !tbaa !18
  br label %33, !llvm.loop !41

87:                                               ; preds = %33
  br label %88

88:                                               ; preds = %87
  %89 = load i64, ptr %6, align 8, !tbaa !26
  %90 = add i64 %89, 1
  store i64 %90, ptr %6, align 8, !tbaa !26
  br label %26, !llvm.loop !42

91:                                               ; preds = %26
  %92 = load ptr, ptr %2, align 8, !tbaa !4
  %93 = getelementptr inbounds nuw %struct.archive_entry_linkresolver, ptr %92, i32 0, i32 0
  %94 = load ptr, ptr %93, align 8, !tbaa !15
  call void @free(ptr noundef %94) #5
  %95 = load ptr, ptr %4, align 8, !tbaa !40
  %96 = load ptr, ptr %2, align 8, !tbaa !4
  %97 = getelementptr inbounds nuw %struct.archive_entry_linkresolver, ptr %96, i32 0, i32 0
  store ptr %95, ptr %97, align 8, !tbaa !15
  %98 = load i64, ptr %5, align 8, !tbaa !26
  %99 = load ptr, ptr %2, align 8, !tbaa !4
  %100 = getelementptr inbounds nuw %struct.archive_entry_linkresolver, ptr %99, i32 0, i32 3
  store i64 %98, ptr %100, align 8, !tbaa !9
  store i32 0, ptr %8, align 4
  br label %101

101:                                              ; preds = %91, %24, %18
  call void @llvm.lifetime.end.p0(i64 8, ptr %7) #5
  call void @llvm.lifetime.end.p0(i64 8, ptr %6) #5
  call void @llvm.lifetime.end.p0(i64 8, ptr %5) #5
  call void @llvm.lifetime.end.p0(i64 8, ptr %4) #5
  call void @llvm.lifetime.end.p0(i64 8, ptr %3) #5
  %102 = load i32, ptr %8, align 4
  switch i32 %102, label %104 [
    i32 0, label %103
    i32 1, label %103
  ]

103:                                              ; preds = %101, %101
  ret void

104:                                              ; preds = %101
  unreachable
}

; Function Attrs: nounwind uwtable
define internal ptr @insert_entry(ptr noundef %0, ptr noundef %1) #0 {
  %3 = alloca ptr, align 8
  %4 = alloca ptr, align 8
  %5 = alloca ptr, align 8
  %6 = alloca ptr, align 8
  %7 = alloca i64, align 8
  %8 = alloca i64, align 8
  %9 = alloca i32, align 4
  store ptr %0, ptr %4, align 8, !tbaa !4
  store ptr %1, ptr %5, align 8, !tbaa !34
  call void @llvm.lifetime.start.p0(i64 8, ptr %6) #5
  call void @llvm.lifetime.start.p0(i64 8, ptr %7) #5
  call void @llvm.lifetime.start.p0(i64 8, ptr %8) #5
  %10 = call noalias ptr @calloc(i64 noundef 1, i64 noundef 48) #6
  store ptr %10, ptr %6, align 8, !tbaa !18
  %11 = load ptr, ptr %6, align 8, !tbaa !18
  %12 = icmp eq ptr %11, null
  br i1 %12, label %13, label %14

13:                                               ; preds = %2
  store ptr null, ptr %3, align 8
  store i32 1, ptr %9, align 4
  br label %87

14:                                               ; preds = %2
  %15 = load ptr, ptr %5, align 8, !tbaa !34
  %16 = call ptr @archive_entry_clone(ptr noundef %15)
  %17 = load ptr, ptr %6, align 8, !tbaa !18
  %18 = getelementptr inbounds nuw %struct.links_entry, ptr %17, i32 0, i32 2
  store ptr %16, ptr %18, align 8, !tbaa !25
  %19 = load ptr, ptr %4, align 8, !tbaa !4
  %20 = getelementptr inbounds nuw %struct.archive_entry_linkresolver, ptr %19, i32 0, i32 2
  %21 = load i64, ptr %20, align 8, !tbaa !29
  %22 = load ptr, ptr %4, align 8, !tbaa !4
  %23 = getelementptr inbounds nuw %struct.archive_entry_linkresolver, ptr %22, i32 0, i32 3
  %24 = load i64, ptr %23, align 8, !tbaa !9
  %25 = mul i64 %24, 2
  %26 = icmp ugt i64 %21, %25
  br i1 %26, label %27, label %29

27:                                               ; preds = %14
  %28 = load ptr, ptr %4, align 8, !tbaa !4
  call void @grow_hash(ptr noundef %28)
  br label %29

29:                                               ; preds = %27, %14
  %30 = load ptr, ptr %5, align 8, !tbaa !34
  %31 = call i64 @archive_entry_dev(ptr noundef %30)
  %32 = load ptr, ptr %5, align 8, !tbaa !34
  %33 = call i64 @archive_entry_ino64(ptr noundef %32)
  %34 = xor i64 %31, %33
  store i64 %34, ptr %7, align 8, !tbaa !26
  %35 = load i64, ptr %7, align 8, !tbaa !26
  %36 = load ptr, ptr %4, align 8, !tbaa !4
  %37 = getelementptr inbounds nuw %struct.archive_entry_linkresolver, ptr %36, i32 0, i32 3
  %38 = load i64, ptr %37, align 8, !tbaa !9
  %39 = sub i64 %38, 1
  %40 = and i64 %35, %39
  store i64 %40, ptr %8, align 8, !tbaa !26
  %41 = load ptr, ptr %4, align 8, !tbaa !4
  %42 = getelementptr inbounds nuw %struct.archive_entry_linkresolver, ptr %41, i32 0, i32 0
  %43 = load ptr, ptr %42, align 8, !tbaa !15
  %44 = load i64, ptr %8, align 8, !tbaa !26
  %45 = getelementptr inbounds nuw ptr, ptr %43, i64 %44
  %46 = load ptr, ptr %45, align 8, !tbaa !18
  %47 = icmp ne ptr %46, null
  br i1 %47, label %48, label %57

48:                                               ; preds = %29
  %49 = load ptr, ptr %6, align 8, !tbaa !18
  %50 = load ptr, ptr %4, align 8, !tbaa !4
  %51 = getelementptr inbounds nuw %struct.archive_entry_linkresolver, ptr %50, i32 0, i32 0
  %52 = load ptr, ptr %51, align 8, !tbaa !15
  %53 = load i64, ptr %8, align 8, !tbaa !26
  %54 = getelementptr inbounds nuw ptr, ptr %52, i64 %53
  %55 = load ptr, ptr %54, align 8, !tbaa !18
  %56 = getelementptr inbounds nuw %struct.links_entry, ptr %55, i32 0, i32 1
  store ptr %49, ptr %56, align 8, !tbaa !28
  br label %57

57:                                               ; preds = %48, %29
  %58 = load ptr, ptr %4, align 8, !tbaa !4
  %59 = getelementptr inbounds nuw %struct.archive_entry_linkresolver, ptr %58, i32 0, i32 2
  %60 = load i64, ptr %59, align 8, !tbaa !29
  %61 = add i64 %60, 1
  store i64 %61, ptr %59, align 8, !tbaa !29
  %62 = load ptr, ptr %4, align 8, !tbaa !4
  %63 = getelementptr inbounds nuw %struct.archive_entry_linkresolver, ptr %62, i32 0, i32 0
  %64 = load ptr, ptr %63, align 8, !tbaa !15
  %65 = load i64, ptr %8, align 8, !tbaa !26
  %66 = getelementptr inbounds nuw ptr, ptr %64, i64 %65
  %67 = load ptr, ptr %66, align 8, !tbaa !18
  %68 = load ptr, ptr %6, align 8, !tbaa !18
  %69 = getelementptr inbounds nuw %struct.links_entry, ptr %68, i32 0, i32 0
  store ptr %67, ptr %69, align 8, !tbaa !27
  %70 = load ptr, ptr %6, align 8, !tbaa !18
  %71 = getelementptr inbounds nuw %struct.links_entry, ptr %70, i32 0, i32 1
  store ptr null, ptr %71, align 8, !tbaa !28
  %72 = load ptr, ptr %6, align 8, !tbaa !18
  %73 = load ptr, ptr %4, align 8, !tbaa !4
  %74 = getelementptr inbounds nuw %struct.archive_entry_linkresolver, ptr %73, i32 0, i32 0
  %75 = load ptr, ptr %74, align 8, !tbaa !15
  %76 = load i64, ptr %8, align 8, !tbaa !26
  %77 = getelementptr inbounds nuw ptr, ptr %75, i64 %76
  store ptr %72, ptr %77, align 8, !tbaa !18
  %78 = load i64, ptr %7, align 8, !tbaa !26
  %79 = load ptr, ptr %6, align 8, !tbaa !18
  %80 = getelementptr inbounds nuw %struct.links_entry, ptr %79, i32 0, i32 4
  store i64 %78, ptr %80, align 8, !tbaa !36
  %81 = load ptr, ptr %5, align 8, !tbaa !34
  %82 = call i32 @archive_entry_nlink(ptr noundef %81)
  %83 = sub i32 %82, 1
  %84 = load ptr, ptr %6, align 8, !tbaa !18
  %85 = getelementptr inbounds nuw %struct.links_entry, ptr %84, i32 0, i32 5
  store i32 %83, ptr %85, align 8, !tbaa !35
  %86 = load ptr, ptr %6, align 8, !tbaa !18
  store ptr %86, ptr %3, align 8
  store i32 1, ptr %9, align 4
  br label %87

87:                                               ; preds = %57, %13
  call void @llvm.lifetime.end.p0(i64 8, ptr %8) #5
  call void @llvm.lifetime.end.p0(i64 8, ptr %7) #5
  call void @llvm.lifetime.end.p0(i64 8, ptr %6) #5
  %88 = load ptr, ptr %3, align 8
  ret ptr %88
}