; Function Attrs: nounwind uwtable
define internal fastcc noundef ptr @insert_entry(ptr noundef captures(none) %0, ptr noundef %1) unnamed_addr #4 {
  %3 = tail call noalias dereferenceable_or_null(48) ptr @calloc(i64 noundef 1, i64 noundef 48) #6
  %4 = icmp eq ptr %3, null
  br i1 %4, label %53, label %5

5:                                                ; preds = %2
  %6 = tail call ptr @archive_entry_clone(ptr noundef %1) #7
  %7 = getelementptr inbounds nuw i8, ptr %3, i64 16
  store ptr %6, ptr %7, align 8, !tbaa !16
  %8 = getelementptr inbounds nuw i8, ptr %0, i64 16
  %9 = load i64, ptr %8, align 8, !tbaa !25
  %10 = getelementptr inbounds nuw i8, ptr %0, i64 24
  %11 = load i64, ptr %10, align 8, !tbaa !4
  %12 = shl i64 %11, 1
  %13 = icmp ule i64 %9, %12
  %14 = icmp slt i64 %11, 0
  %or.cond = or i1 %14, %13
  br i1 %or.cond, label %grow_hash.exit, label %15

15:                                               ; preds = %5
  %16 = tail call noalias ptr @calloc(i64 noundef %12, i64 noundef 8) #6
  %17 = icmp eq ptr %16, null
  br i1 %17, label %grow_hash.exit, label %.preheader38.i

.preheader38.i:                                   ; preds = %15
  %.not42.i = icmp eq i64 %11, 0
  %.pre.i = load ptr, ptr %0, align 8, !tbaa !13
  br i1 %.not42.i, label %._crit_edge41.i, label %.preheader.lr.ph.i

.preheader.lr.ph.i:                               ; preds = %.preheader38.i
  %18 = add i64 %12, -1
  br label %.preheader.i

.preheader.i:                                     ; preds = %._crit_edge.i, %.preheader.lr.ph.i
  %.040.i = phi i64 [ 0, %.preheader.lr.ph.i ], [ %33, %._crit_edge.i ]
  %19 = getelementptr inbounds nuw ptr, ptr %.pre.i, i64 %.040.i
  %20 = load ptr, ptr %19, align 8, !tbaa !20
  %.not39.i = icmp eq ptr %20, null
  br i1 %.not39.i, label %._crit_edge.i, label %.lr.ph.i

.lr.ph.i:                                         ; preds = %.preheader.i, %30
  %21 = phi ptr [ %32, %30 ], [ %20, %.preheader.i ]
  %22 = load ptr, ptr %21, align 8, !tbaa !21
  store ptr %22, ptr %19, align 8, !tbaa !20
  %23 = getelementptr inbounds nuw i8, ptr %21, i64 32
  %24 = load i64, ptr %23, align 8, !tbaa !30
  %25 = and i64 %24, %18
  %26 = getelementptr inbounds nuw ptr, ptr %16, i64 %25
  %27 = load ptr, ptr %26, align 8, !tbaa !20
  %.not37.i = icmp eq ptr %27, null
  br i1 %.not37.i, label %30, label %28

28:                                               ; preds = %.lr.ph.i
  %29 = getelementptr inbounds nuw i8, ptr %27, i64 8
  store ptr %21, ptr %29, align 8, !tbaa !22
  br label %30

30:                                               ; preds = %28, %.lr.ph.i
  store ptr %27, ptr %21, align 8, !tbaa !21
  %31 = getelementptr inbounds nuw i8, ptr %21, i64 8
  store ptr null, ptr %31, align 8, !tbaa !22
  store ptr %21, ptr %26, align 8, !tbaa !20
  %32 = load ptr, ptr %19, align 8, !tbaa !20
  %.not.i = icmp eq ptr %32, null
  br i1 %.not.i, label %._crit_edge.i, label %.lr.ph.i, !llvm.loop !32

._crit_edge.i:                                    ; preds = %30, %.preheader.i
  %33 = add nuw nsw i64 %.040.i, 1
  %exitcond.not.i = icmp eq i64 %33, %11
  br i1 %exitcond.not.i, label %._crit_edge41.i, label %.preheader.i, !llvm.loop !33

._crit_edge41.i:                                  ; preds = %._crit_edge.i, %.preheader38.i
  tail call void @free(ptr noundef %.pre.i) #7
  store ptr %16, ptr %0, align 8, !tbaa !13
  store i64 %12, ptr %10, align 8, !tbaa !4
  br label %grow_hash.exit

grow_hash.exit:                                   ; preds = %._crit_edge41.i, %15, %5
  %34 = tail call i64 @archive_entry_dev(ptr noundef %1) #7
  %35 = tail call i64 @archive_entry_ino64(ptr noundef %1) #7
  %36 = xor i64 %35, %34
  %37 = load i64, ptr %10, align 8, !tbaa !4
  %38 = add i64 %37, -1
  %39 = and i64 %38, %36
  %40 = load ptr, ptr %0, align 8, !tbaa !13
  %41 = getelementptr inbounds nuw ptr, ptr %40, i64 %39
  %42 = load ptr, ptr %41, align 8, !tbaa !20
  %.not = icmp eq ptr %42, null
  br i1 %.not, label %45, label %43

43:                                               ; preds = %grow_hash.exit
  %44 = getelementptr inbounds nuw i8, ptr %42, i64 8
  store ptr %3, ptr %44, align 8, !tbaa !22
  %.pre = load ptr, ptr %41, align 8, !tbaa !20
  br label %45

45:                                               ; preds = %43, %grow_hash.exit
  %46 = phi ptr [ %.pre, %43 ], [ null, %grow_hash.exit ]
  %47 = load i64, ptr %8, align 8, !tbaa !25
  %48 = add i64 %47, 1
  store i64 %48, ptr %8, align 8, !tbaa !25
  store ptr %46, ptr %3, align 8, !tbaa !21
  store ptr %3, ptr %41, align 8, !tbaa !20
  %49 = getelementptr inbounds nuw i8, ptr %3, i64 32
  store i64 %36, ptr %49, align 8, !tbaa !30
  %50 = tail call i32 @archive_entry_nlink(ptr noundef %1) #7
  %51 = add i32 %50, -1
  %52 = getelementptr inbounds nuw i8, ptr %3, i64 40
  store i32 %51, ptr %52, align 8, !tbaa !29
  br label %53

53:                                               ; preds = %2, %45
  ret ptr %3
}